
BearMetal.elf:     file format elf32-littlearm

Sections:
Idx Name          Size      VMA       LMA       File off  Algn
  0 .isr_vector   000001f8  08000000  08000000  00001000  2**0
                  CONTENTS, ALLOC, LOAD, READONLY, DATA
  1 .text         00000768  080001f8  080001f8  000011f8  2**2
                  CONTENTS, ALLOC, LOAD, READONLY, CODE
  2 .rodata       00000008  08000960  08000960  00001960  2**2
                  CONTENTS, ALLOC, LOAD, READONLY, DATA
  3 .ARM.extab    00000000  08000968  08000968  00002004  2**0
                  CONTENTS
  4 .ARM          00000000  08000968  08000968  00002004  2**0
                  CONTENTS
  5 .preinit_array 00000000  08000968  08000968  00002004  2**0
                  CONTENTS, ALLOC, LOAD, DATA
  6 .init_array   00000004  08000968  08000968  00001968  2**2
                  CONTENTS, ALLOC, LOAD, READONLY, DATA
  7 .fini_array   00000004  0800096c  0800096c  0000196c  2**2
                  CONTENTS, ALLOC, LOAD, READONLY, DATA
  8 .data         00000004  20000000  08000970  00002000  2**2
                  CONTENTS, ALLOC, LOAD, DATA
  9 .bss          00000020  20000004  08000974  00002004  2**2
                  ALLOC
 10 ._user_heap_stack 00000604  20000024  08000974  00002024  2**0
                  ALLOC
 11 .ARM.attributes 0000002e  00000000  00000000  00002004  2**0
                  CONTENTS, READONLY
 12 .debug_info   000016a7  00000000  00000000  00002032  2**0
                  CONTENTS, READONLY, DEBUGGING, OCTETS
 13 .debug_abbrev 000008f1  00000000  00000000  000036d9  2**0
                  CONTENTS, READONLY, DEBUGGING, OCTETS
 14 .debug_aranges 000001c0  00000000  00000000  00003fd0  2**3
                  CONTENTS, READONLY, DEBUGGING, OCTETS
 15 .debug_rnglists 0000012b  00000000  00000000  00004190  2**0
                  CONTENTS, READONLY, DEBUGGING, OCTETS
 16 .debug_macro  0001d5bf  00000000  00000000  000042bb  2**0
                  CONTENTS, READONLY, DEBUGGING, OCTETS
 17 .debug_line   0000294c  00000000  00000000  0002187a  2**0
                  CONTENTS, READONLY, DEBUGGING, OCTETS
 18 .debug_str    000a38e4  00000000  00000000  000241c6  2**0
                  CONTENTS, READONLY, DEBUGGING, OCTETS
 19 .comment      00000043  00000000  00000000  000c7aaa  2**0
                  CONTENTS, READONLY
 20 .debug_frame  000004b4  00000000  00000000  000c7af0  2**2
                  CONTENTS, READONLY, DEBUGGING, OCTETS
 21 .debug_line_str 00000060  00000000  00000000  000c7fa4  2**0
                  CONTENTS, READONLY, DEBUGGING, OCTETS

Disassembly of section .text:

080001f8 <__do_global_dtors_aux>:
 80001f8:	b510      	push	{r4, lr}
 80001fa:	4c05      	ldr	r4, [pc, #20]	@ (8000210 <__do_global_dtors_aux+0x18>)
 80001fc:	7823      	ldrb	r3, [r4, #0]
 80001fe:	b933      	cbnz	r3, 800020e <__do_global_dtors_aux+0x16>
 8000200:	4b04      	ldr	r3, [pc, #16]	@ (8000214 <__do_global_dtors_aux+0x1c>)
 8000202:	b113      	cbz	r3, 800020a <__do_global_dtors_aux+0x12>
 8000204:	4804      	ldr	r0, [pc, #16]	@ (8000218 <__do_global_dtors_aux+0x20>)
 8000206:	f3af 8000 	nop.w
 800020a:	2301      	movs	r3, #1
 800020c:	7023      	strb	r3, [r4, #0]
 800020e:	bd10      	pop	{r4, pc}
 8000210:	20000004 	.word	0x20000004
 8000214:	00000000 	.word	0x00000000
 8000218:	08000948 	.word	0x08000948

0800021c <frame_dummy>:
 800021c:	b508      	push	{r3, lr}
 800021e:	4b03      	ldr	r3, [pc, #12]	@ (800022c <frame_dummy+0x10>)
 8000220:	b11b      	cbz	r3, 800022a <frame_dummy+0xe>
 8000222:	4903      	ldr	r1, [pc, #12]	@ (8000230 <frame_dummy+0x14>)
 8000224:	4803      	ldr	r0, [pc, #12]	@ (8000234 <frame_dummy+0x18>)
 8000226:	f3af 8000 	nop.w
 800022a:	bd08      	pop	{r3, pc}
 800022c:	00000000 	.word	0x00000000
 8000230:	20000008 	.word	0x20000008
 8000234:	08000948 	.word	0x08000948

08000238 <bsp_init>:

#define LED_GPIO GPIOB
#define LED_PIN  0u

void bsp_init(void)
{
 8000238:	b580      	push	{r7, lr}
 800023a:	af00      	add	r7, sp, #0
    rcc_enable_gpio(LED_GPIO);
 800023c:	4805      	ldr	r0, [pc, #20]	@ (8000254 <bsp_init+0x1c>)
 800023e:	f000 f96d 	bl	800051c <rcc_enable_gpio>
    __NOP();
 8000242:	bf00      	nop
        .speed = GPIO_SPEED_LOW,
        .pupd  = GPIO_PUPD_NONE,
        .af    = 0
    };

    gpio_config(LED_GPIO, LED_PIN, &led_cfg);
 8000244:	4a04      	ldr	r2, [pc, #16]	@ (8000258 <bsp_init+0x20>)
 8000246:	2100      	movs	r1, #0
 8000248:	4802      	ldr	r0, [pc, #8]	@ (8000254 <bsp_init+0x1c>)
 800024a:	f000 f8f6 	bl	800043a <gpio_config>
}
 800024e:	bf00      	nop
 8000250:	bd80      	pop	{r7, pc}
 8000252:	bf00      	nop
 8000254:	40020400 	.word	0x40020400
 8000258:	08000960 	.word	0x08000960

0800025c <bsp_led_toggle>:

void bsp_led_toggle(void)
{
 800025c:	b580      	push	{r7, lr}
 800025e:	af00      	add	r7, sp, #0
    gpio_toggle(LED_GPIO, LED_PIN);
 8000260:	2100      	movs	r1, #0
 8000262:	4802      	ldr	r0, [pc, #8]	@ (800026c <bsp_led_toggle+0x10>)
 8000264:	f000 f927 	bl	80004b6 <gpio_toggle>
}
 8000268:	bf00      	nop
 800026a:	bd80      	pop	{r7, pc}
 800026c:	40020400 	.word	0x40020400

08000270 <clock_init>:
// CMSIS global variable: core clock frequency
// This is initialized to HSI default, then updated by clock_init()
uint32_t SystemCoreClock = 16000000;

void clock_init(void)
{
 8000270:	b480      	push	{r7}
 8000272:	b083      	sub	sp, #12
 8000274:	af00      	add	r7, sp, #0
    // Configure Flash latency BEFORE increasing system clock frequency
    // 216 MHz at 3.3V requires 7 wait states (from datasheet)
    FLASH->ACR |= FLASH_ACR_LATENCY_7WS;  // Set 7 wait states
 8000276:	4b37      	ldr	r3, [pc, #220]	@ (8000354 <clock_init+0xe4>)
 8000278:	681b      	ldr	r3, [r3, #0]
 800027a:	4a36      	ldr	r2, [pc, #216]	@ (8000354 <clock_init+0xe4>)
 800027c:	f043 0307 	orr.w	r3, r3, #7
 8000280:	6013      	str	r3, [r2, #0]
    FLASH->ACR |= FLASH_ACR_PRFTEN;       // Enable prefetch buffer
 8000282:	4b34      	ldr	r3, [pc, #208]	@ (8000354 <clock_init+0xe4>)
 8000284:	681b      	ldr	r3, [r3, #0]
 8000286:	4a33      	ldr	r2, [pc, #204]	@ (8000354 <clock_init+0xe4>)
 8000288:	f443 7380 	orr.w	r3, r3, #256	@ 0x100
 800028c:	6013      	str	r3, [r2, #0]
    FLASH->ACR |= FLASH_ACR_ARTEN;        // Enable ART accelerator
 800028e:	4b31      	ldr	r3, [pc, #196]	@ (8000354 <clock_init+0xe4>)
 8000290:	681b      	ldr	r3, [r3, #0]
 8000292:	4a30      	ldr	r2, [pc, #192]	@ (8000354 <clock_init+0xe4>)
 8000294:	f443 7300 	orr.w	r3, r3, #512	@ 0x200
 8000298:	6013      	str	r3, [r2, #0]

    // Enable High-Speed External oscillator (HSE)
    RCC->CR |= RCC_CR_HSEON;
 800029a:	4b2f      	ldr	r3, [pc, #188]	@ (8000358 <clock_init+0xe8>)
 800029c:	681b      	ldr	r3, [r3, #0]
 800029e:	4a2e      	ldr	r2, [pc, #184]	@ (8000358 <clock_init+0xe8>)
 80002a0:	f443 3380 	orr.w	r3, r3, #65536	@ 0x10000
 80002a4:	6013      	str	r3, [r2, #0]

    // Wait for HSE to be ready (with timeout)
    uint32_t timeout = 0x4000;
 80002a6:	f44f 4380 	mov.w	r3, #16384	@ 0x4000
 80002aa:	607b      	str	r3, [r7, #4]
    while (!(RCC->CR & RCC_CR_HSERDY) && --timeout)
 80002ac:	bf00      	nop
 80002ae:	4b2a      	ldr	r3, [pc, #168]	@ (8000358 <clock_init+0xe8>)
 80002b0:	681b      	ldr	r3, [r3, #0]
 80002b2:	f403 3300 	and.w	r3, r3, #131072	@ 0x20000
 80002b6:	2b00      	cmp	r3, #0
 80002b8:	d105      	bne.n	80002c6 <clock_init+0x56>
 80002ba:	687b      	ldr	r3, [r7, #4]
 80002bc:	3b01      	subs	r3, #1
 80002be:	607b      	str	r3, [r7, #4]
 80002c0:	687b      	ldr	r3, [r7, #4]
 80002c2:	2b00      	cmp	r3, #0
 80002c4:	d1f3      	bne.n	80002ae <clock_init+0x3e>
    // Input: 8 MHz HSE
    // PLLM = 8:   8 MHz / 8 = 1 MHz (VCO input)
    // PLLN = 432: 1 MHz * 432 = 432 MHz (VCO output)
    // PLLP = 2:   432 MHz / 2 = 216 MHz (system clock)
    // PLLQ = 9:   432 MHz / 9 = 48 MHz (USB/SDMMC)
    RCC->PLLCFGR = RCC_PLLCFGR_PLLSRC_HSE  // HSE as PLL input source
 80002c6:	4b24      	ldr	r3, [pc, #144]	@ (8000358 <clock_init+0xe8>)
 80002c8:	4a24      	ldr	r2, [pc, #144]	@ (800035c <clock_init+0xec>)
 80002ca:	605a      	str	r2, [r3, #4]
                 | (432 << RCC_PLLCFGR_PLLN_Pos)  // PLLN = 432
                 | (0 << RCC_PLLCFGR_PLLP_Pos)    // PLLP = 0 (means divide by 2)
                 | (9 << RCC_PLLCFGR_PLLQ_Pos);   // PLLQ = 9

    // Enable PLL
    RCC->CR |= RCC_CR_PLLON;
 80002cc:	4b22      	ldr	r3, [pc, #136]	@ (8000358 <clock_init+0xe8>)
 80002ce:	681b      	ldr	r3, [r3, #0]
 80002d0:	4a21      	ldr	r2, [pc, #132]	@ (8000358 <clock_init+0xe8>)
 80002d2:	f043 7380 	orr.w	r3, r3, #16777216	@ 0x1000000
 80002d6:	6013      	str	r3, [r2, #0]

    // Wait for PLL lock (with timeout)
    timeout = 0x4000;
 80002d8:	f44f 4380 	mov.w	r3, #16384	@ 0x4000
 80002dc:	607b      	str	r3, [r7, #4]
    while (!(RCC->CR & RCC_CR_PLLRDY) && --timeout)
 80002de:	bf00      	nop
 80002e0:	4b1d      	ldr	r3, [pc, #116]	@ (8000358 <clock_init+0xe8>)
 80002e2:	681b      	ldr	r3, [r3, #0]
 80002e4:	f003 7300 	and.w	r3, r3, #33554432	@ 0x2000000
 80002e8:	2b00      	cmp	r3, #0
 80002ea:	d105      	bne.n	80002f8 <clock_init+0x88>
 80002ec:	687b      	ldr	r3, [r7, #4]
 80002ee:	3b01      	subs	r3, #1
 80002f0:	607b      	str	r3, [r7, #4]
 80002f2:	687b      	ldr	r3, [r7, #4]
 80002f4:	2b00      	cmp	r3, #0
 80002f6:	d1f3      	bne.n	80002e0 <clock_init+0x70>

    // Configure AHB and APB prescalers while PLL is locking
    // AHB:  216 MHz (HPRE = 0, prescaler = 1)
    // APB1: 54 MHz (PPRE1 = 5, prescaler = 4, max 54 MHz)
    // APB2: 108 MHz (PPRE2 = 4, prescaler = 2, max 108 MHz)
    RCC->CFGR |= (0b0000 << RCC_CFGR_HPRE_Pos)   // AHB prescaler = 1
 80002f8:	4b17      	ldr	r3, [pc, #92]	@ (8000358 <clock_init+0xe8>)
 80002fa:	689b      	ldr	r3, [r3, #8]
 80002fc:	4a16      	ldr	r2, [pc, #88]	@ (8000358 <clock_init+0xe8>)
 80002fe:	f443 4314 	orr.w	r3, r3, #37888	@ 0x9400
 8000302:	6093      	str	r3, [r2, #8]
              | (0b101 << RCC_CFGR_PPRE1_Pos)  // APB1 prescaler = 4
              | (0b100 << RCC_CFGR_PPRE2_Pos); // APB2 prescaler = 2

    // Switch system clock source to PLL
    RCC->CFGR |= RCC_CFGR_SW_PLL;
 8000304:	4b14      	ldr	r3, [pc, #80]	@ (8000358 <clock_init+0xe8>)
 8000306:	689b      	ldr	r3, [r3, #8]
 8000308:	4a13      	ldr	r2, [pc, #76]	@ (8000358 <clock_init+0xe8>)
 800030a:	f043 0302 	orr.w	r3, r3, #2
 800030e:	6093      	str	r3, [r2, #8]

    // Wait for clock switch to complete
    timeout = 0x4000;
 8000310:	f44f 4380 	mov.w	r3, #16384	@ 0x4000
 8000314:	607b      	str	r3, [r7, #4]
    while ((RCC->CFGR & RCC_CFGR_SWS) != RCC_CFGR_SWS_PLL && --timeout)
 8000316:	bf00      	nop
 8000318:	4b0f      	ldr	r3, [pc, #60]	@ (8000358 <clock_init+0xe8>)
 800031a:	689b      	ldr	r3, [r3, #8]
 800031c:	f003 030c 	and.w	r3, r3, #12
 8000320:	2b08      	cmp	r3, #8
 8000322:	d005      	beq.n	8000330 <clock_init+0xc0>
 8000324:	687b      	ldr	r3, [r7, #4]
 8000326:	3b01      	subs	r3, #1
 8000328:	607b      	str	r3, [r7, #4]
 800032a:	687b      	ldr	r3, [r7, #4]
 800032c:	2b00      	cmp	r3, #0
 800032e:	d1f3      	bne.n	8000318 <clock_init+0xa8>
        ;

    // Update CMSIS SystemCoreClock variable
    SystemCoreClock = 216000000;
 8000330:	4b0b      	ldr	r3, [pc, #44]	@ (8000360 <clock_init+0xf0>)
 8000332:	4a0c      	ldr	r2, [pc, #48]	@ (8000364 <clock_init+0xf4>)
 8000334:	601a      	str	r2, [r3, #0]

    // Disable HSI as it's no longer needed (optional power saving)
    RCC->CR &= ~RCC_CR_HSION;
 8000336:	4b08      	ldr	r3, [pc, #32]	@ (8000358 <clock_init+0xe8>)
 8000338:	681b      	ldr	r3, [r3, #0]
 800033a:	4a07      	ldr	r2, [pc, #28]	@ (8000358 <clock_init+0xe8>)
 800033c:	f023 0301 	bic.w	r3, r3, #1
 8000340:	6013      	str	r3, [r2, #0]
  \details Acts as a special kind of Data Memory Barrier.
           It completes when all explicit memory accesses before this instruction complete.
 */
__STATIC_FORCEINLINE void __DSB(void)
{
  __ASM volatile ("dsb 0xF":::"memory");
 8000342:	f3bf 8f4f 	dsb	sy
}
 8000346:	bf00      	nop

    // Ensure memory operations complete
    __DSB();
}
 8000348:	bf00      	nop
 800034a:	370c      	adds	r7, #12
 800034c:	46bd      	mov	sp, r7
 800034e:	f85d 7b04 	ldr.w	r7, [sp], #4
 8000352:	4770      	bx	lr
 8000354:	40023c00 	.word	0x40023c00
 8000358:	40023800 	.word	0x40023800
 800035c:	09406c08 	.word	0x09406c08
 8000360:	20000000 	.word	0x20000000
 8000364:	0cdfe600 	.word	0x0cdfe600

08000368 <set_2bit_field>:
 */

#include "../Inc/gpio.h"

static inline void set_2bit_field(volatile uint32_t *reg, uint32_t pin, uint32_t val)
{
 8000368:	b480      	push	{r7}
 800036a:	b087      	sub	sp, #28
 800036c:	af00      	add	r7, sp, #0
 800036e:	60f8      	str	r0, [r7, #12]
 8000370:	60b9      	str	r1, [r7, #8]
 8000372:	607a      	str	r2, [r7, #4]
    uint32_t shift = pin * 2u;
 8000374:	68bb      	ldr	r3, [r7, #8]
 8000376:	005b      	lsls	r3, r3, #1
 8000378:	617b      	str	r3, [r7, #20]
    *reg = (*reg & ~(3u << shift)) | ((val & 3u) << shift);
 800037a:	68fb      	ldr	r3, [r7, #12]
 800037c:	681a      	ldr	r2, [r3, #0]
 800037e:	2103      	movs	r1, #3
 8000380:	697b      	ldr	r3, [r7, #20]
 8000382:	fa01 f303 	lsl.w	r3, r1, r3
 8000386:	43db      	mvns	r3, r3
 8000388:	401a      	ands	r2, r3
 800038a:	687b      	ldr	r3, [r7, #4]
 800038c:	f003 0103 	and.w	r1, r3, #3
 8000390:	697b      	ldr	r3, [r7, #20]
 8000392:	fa01 f303 	lsl.w	r3, r1, r3
 8000396:	431a      	orrs	r2, r3
 8000398:	68fb      	ldr	r3, [r7, #12]
 800039a:	601a      	str	r2, [r3, #0]
}
 800039c:	bf00      	nop
 800039e:	371c      	adds	r7, #28
 80003a0:	46bd      	mov	sp, r7
 80003a2:	f85d 7b04 	ldr.w	r7, [sp], #4
 80003a6:	4770      	bx	lr

080003a8 <set_1bit_field>:

static inline void set_1bit_field(volatile uint32_t *reg, uint32_t pin, uint32_t val)
{
 80003a8:	b480      	push	{r7}
 80003aa:	b085      	sub	sp, #20
 80003ac:	af00      	add	r7, sp, #0
 80003ae:	60f8      	str	r0, [r7, #12]
 80003b0:	60b9      	str	r1, [r7, #8]
 80003b2:	607a      	str	r2, [r7, #4]
    *reg = (*reg & ~(1u << pin)) | ((val & 1u) << pin);
 80003b4:	68fb      	ldr	r3, [r7, #12]
 80003b6:	681a      	ldr	r2, [r3, #0]
 80003b8:	2101      	movs	r1, #1
 80003ba:	68bb      	ldr	r3, [r7, #8]
 80003bc:	fa01 f303 	lsl.w	r3, r1, r3
 80003c0:	43db      	mvns	r3, r3
 80003c2:	401a      	ands	r2, r3
 80003c4:	687b      	ldr	r3, [r7, #4]
 80003c6:	f003 0101 	and.w	r1, r3, #1
 80003ca:	68bb      	ldr	r3, [r7, #8]
 80003cc:	fa01 f303 	lsl.w	r3, r1, r3
 80003d0:	431a      	orrs	r2, r3
 80003d2:	68fb      	ldr	r3, [r7, #12]
 80003d4:	601a      	str	r2, [r3, #0]
}
 80003d6:	bf00      	nop
 80003d8:	3714      	adds	r7, #20
 80003da:	46bd      	mov	sp, r7
 80003dc:	f85d 7b04 	ldr.w	r7, [sp], #4
 80003e0:	4770      	bx	lr

080003e2 <set_4bit_af>:

static inline void set_4bit_af(GPIO_TypeDef *gpio, uint32_t pin, uint32_t af)
{
 80003e2:	b480      	push	{r7}
 80003e4:	b087      	sub	sp, #28
 80003e6:	af00      	add	r7, sp, #0
 80003e8:	60f8      	str	r0, [r7, #12]
 80003ea:	60b9      	str	r1, [r7, #8]
 80003ec:	607a      	str	r2, [r7, #4]
    uint32_t idx   = (pin >> 3);          // 0 for 0..7, 1 for 8..15
 80003ee:	68bb      	ldr	r3, [r7, #8]
 80003f0:	08db      	lsrs	r3, r3, #3
 80003f2:	617b      	str	r3, [r7, #20]
    uint32_t shift = (pin & 7u) * 4u;     // position within AFRL/AFRH
 80003f4:	68bb      	ldr	r3, [r7, #8]
 80003f6:	f003 0307 	and.w	r3, r3, #7
 80003fa:	009b      	lsls	r3, r3, #2
 80003fc:	613b      	str	r3, [r7, #16]
    gpio->AFR[idx] = (gpio->AFR[idx] & ~(0xFu << shift)) | ((af & 0xFu) << shift);
 80003fe:	68fb      	ldr	r3, [r7, #12]
 8000400:	697a      	ldr	r2, [r7, #20]
 8000402:	3208      	adds	r2, #8
 8000404:	f853 2022 	ldr.w	r2, [r3, r2, lsl #2]
 8000408:	210f      	movs	r1, #15
 800040a:	693b      	ldr	r3, [r7, #16]
 800040c:	fa01 f303 	lsl.w	r3, r1, r3
 8000410:	43db      	mvns	r3, r3
 8000412:	401a      	ands	r2, r3
 8000414:	687b      	ldr	r3, [r7, #4]
 8000416:	f003 010f 	and.w	r1, r3, #15
 800041a:	693b      	ldr	r3, [r7, #16]
 800041c:	fa01 f303 	lsl.w	r3, r1, r3
 8000420:	ea42 0103 	orr.w	r1, r2, r3
 8000424:	68fb      	ldr	r3, [r7, #12]
 8000426:	697a      	ldr	r2, [r7, #20]
 8000428:	3208      	adds	r2, #8
 800042a:	f843 1022 	str.w	r1, [r3, r2, lsl #2]
}
 800042e:	bf00      	nop
 8000430:	371c      	adds	r7, #28
 8000432:	46bd      	mov	sp, r7
 8000434:	f85d 7b04 	ldr.w	r7, [sp], #4
 8000438:	4770      	bx	lr

0800043a <gpio_config>:

void gpio_config(GPIO_TypeDef *gpio, uint32_t pin, const gpio_pin_cfg_t *cfg)
{
 800043a:	b580      	push	{r7, lr}
 800043c:	b084      	sub	sp, #16
 800043e:	af00      	add	r7, sp, #0
 8000440:	60f8      	str	r0, [r7, #12]
 8000442:	60b9      	str	r1, [r7, #8]
 8000444:	607a      	str	r2, [r7, #4]
    // Mode
    set_2bit_field(&gpio->MODER, pin, (uint32_t)cfg->mode);
 8000446:	68f8      	ldr	r0, [r7, #12]
 8000448:	687b      	ldr	r3, [r7, #4]
 800044a:	781b      	ldrb	r3, [r3, #0]
 800044c:	461a      	mov	r2, r3
 800044e:	68b9      	ldr	r1, [r7, #8]
 8000450:	f7ff ff8a 	bl	8000368 <set_2bit_field>

    // Pull-up/down
    set_2bit_field(&gpio->PUPDR, pin, (uint32_t)cfg->pupd);
 8000454:	68fb      	ldr	r3, [r7, #12]
 8000456:	f103 000c 	add.w	r0, r3, #12
 800045a:	687b      	ldr	r3, [r7, #4]
 800045c:	78db      	ldrb	r3, [r3, #3]
 800045e:	461a      	mov	r2, r3
 8000460:	68b9      	ldr	r1, [r7, #8]
 8000462:	f7ff ff81 	bl	8000368 <set_2bit_field>

    // Output type & speed only relevant for output/AF
    if (cfg->mode == GPIO_MODE_OUTPUT || cfg->mode == GPIO_MODE_AF) {
 8000466:	687b      	ldr	r3, [r7, #4]
 8000468:	781b      	ldrb	r3, [r3, #0]
 800046a:	2b01      	cmp	r3, #1
 800046c:	d003      	beq.n	8000476 <gpio_config+0x3c>
 800046e:	687b      	ldr	r3, [r7, #4]
 8000470:	781b      	ldrb	r3, [r3, #0]
 8000472:	2b02      	cmp	r3, #2
 8000474:	d110      	bne.n	8000498 <gpio_config+0x5e>
        set_1bit_field(&gpio->OTYPER,   pin, (uint32_t)cfg->otype);
 8000476:	68fb      	ldr	r3, [r7, #12]
 8000478:	1d18      	adds	r0, r3, #4
 800047a:	687b      	ldr	r3, [r7, #4]
 800047c:	785b      	ldrb	r3, [r3, #1]
 800047e:	461a      	mov	r2, r3
 8000480:	68b9      	ldr	r1, [r7, #8]
 8000482:	f7ff ff91 	bl	80003a8 <set_1bit_field>
        set_2bit_field(&gpio->OSPEEDR,  pin, (uint32_t)cfg->speed);
 8000486:	68fb      	ldr	r3, [r7, #12]
 8000488:	f103 0008 	add.w	r0, r3, #8
 800048c:	687b      	ldr	r3, [r7, #4]
 800048e:	789b      	ldrb	r3, [r3, #2]
 8000490:	461a      	mov	r2, r3
 8000492:	68b9      	ldr	r1, [r7, #8]
 8000494:	f7ff ff68 	bl	8000368 <set_2bit_field>
    }

    // Alternate function only relevant for AF mode
    if (cfg->mode == GPIO_MODE_AF) {
 8000498:	687b      	ldr	r3, [r7, #4]
 800049a:	781b      	ldrb	r3, [r3, #0]
 800049c:	2b02      	cmp	r3, #2
 800049e:	d106      	bne.n	80004ae <gpio_config+0x74>
        set_4bit_af(gpio, pin, cfg->af);
 80004a0:	687b      	ldr	r3, [r7, #4]
 80004a2:	791b      	ldrb	r3, [r3, #4]
 80004a4:	461a      	mov	r2, r3
 80004a6:	68b9      	ldr	r1, [r7, #8]
 80004a8:	68f8      	ldr	r0, [r7, #12]
 80004aa:	f7ff ff9a 	bl	80003e2 <set_4bit_af>
    }
}
 80004ae:	bf00      	nop
 80004b0:	3710      	adds	r7, #16
 80004b2:	46bd      	mov	sp, r7
 80004b4:	bd80      	pop	{r7, pc}

080004b6 <gpio_toggle>:
    if (value) gpio->BSRR = (1u << pin);
    else       gpio->BSRR = (1u << (pin + 16u));
}

void gpio_toggle(GPIO_TypeDef *gpio, uint32_t pin)
{
 80004b6:	b480      	push	{r7}
 80004b8:	b085      	sub	sp, #20
 80004ba:	af00      	add	r7, sp, #0
 80004bc:	6078      	str	r0, [r7, #4]
 80004be:	6039      	str	r1, [r7, #0]
    uint32_t mask = (1u << pin);
 80004c0:	2201      	movs	r2, #1
 80004c2:	683b      	ldr	r3, [r7, #0]
 80004c4:	fa02 f303 	lsl.w	r3, r2, r3
 80004c8:	60fb      	str	r3, [r7, #12]
    if (gpio->ODR & mask) gpio->BSRR = (mask << 16u);
 80004ca:	687b      	ldr	r3, [r7, #4]
 80004cc:	695a      	ldr	r2, [r3, #20]
 80004ce:	68fb      	ldr	r3, [r7, #12]
 80004d0:	4013      	ands	r3, r2
 80004d2:	2b00      	cmp	r3, #0
 80004d4:	d004      	beq.n	80004e0 <gpio_toggle+0x2a>
 80004d6:	68fb      	ldr	r3, [r7, #12]
 80004d8:	041a      	lsls	r2, r3, #16
 80004da:	687b      	ldr	r3, [r7, #4]
 80004dc:	619a      	str	r2, [r3, #24]
    else                 gpio->BSRR = mask;
}
 80004de:	e002      	b.n	80004e6 <gpio_toggle+0x30>
    else                 gpio->BSRR = mask;
 80004e0:	687b      	ldr	r3, [r7, #4]
 80004e2:	68fa      	ldr	r2, [r7, #12]
 80004e4:	619a      	str	r2, [r3, #24]
}
 80004e6:	bf00      	nop
 80004e8:	3714      	adds	r7, #20
 80004ea:	46bd      	mov	sp, r7
 80004ec:	f85d 7b04 	ldr.w	r7, [sp], #4
 80004f0:	4770      	bx	lr

080004f2 <main>:
#include "bsp.h"

static void delay(volatile uint32_t n) { while (n--) __NOP(); }

int main(void)
{
 80004f2:	b580      	push	{r7, lr}
 80004f4:	b082      	sub	sp, #8
 80004f6:	af00      	add	r7, sp, #0
    system_init();
 80004f8:	f000 f974 	bl	80007e4 <system_init>
    bsp_init();
 80004fc:	f7ff fe9c 	bl	8000238 <bsp_init>

    // Timer for LED toggle
    uint32_t led_timer = 0;
 8000500:	2300      	movs	r3, #0
 8000502:	607b      	str	r3, [r7, #4]

    while (1) {
        // Toggle LED every 1000 ms (1 second)
        if (timer_elapsed(&led_timer, 1000)) {
 8000504:	1d3b      	adds	r3, r7, #4
 8000506:	f44f 717a 	mov.w	r1, #1000	@ 0x3e8
 800050a:	4618      	mov	r0, r3
 800050c:	f000 f9a4 	bl	8000858 <timer_elapsed>
 8000510:	4603      	mov	r3, r0
 8000512:	2b00      	cmp	r3, #0
 8000514:	d0f6      	beq.n	8000504 <main+0x12>
            bsp_led_toggle();
 8000516:	f7ff fea1 	bl	800025c <bsp_led_toggle>
        if (timer_elapsed(&led_timer, 1000)) {
 800051a:	e7f3      	b.n	8000504 <main+0x12>

0800051c <rcc_enable_gpio>:
 */

#include "rcc.h"

void rcc_enable_gpio(GPIO_TypeDef *gpio)
{
 800051c:	b480      	push	{r7}
 800051e:	b083      	sub	sp, #12
 8000520:	af00      	add	r7, sp, #0
 8000522:	6078      	str	r0, [r7, #4]
    // Enable AHB1 clock for the given GPIO port
    if (gpio == GPIOA)      RCC->AHB1ENR |= RCC_AHB1ENR_GPIOAEN;
 8000524:	687b      	ldr	r3, [r7, #4]
 8000526:	4a40      	ldr	r2, [pc, #256]	@ (8000628 <rcc_enable_gpio+0x10c>)
 8000528:	4293      	cmp	r3, r2
 800052a:	d106      	bne.n	800053a <rcc_enable_gpio+0x1e>
 800052c:	4b3f      	ldr	r3, [pc, #252]	@ (800062c <rcc_enable_gpio+0x110>)
 800052e:	6b1b      	ldr	r3, [r3, #48]	@ 0x30
 8000530:	4a3e      	ldr	r2, [pc, #248]	@ (800062c <rcc_enable_gpio+0x110>)
 8000532:	f043 0301 	orr.w	r3, r3, #1
 8000536:	6313      	str	r3, [r2, #48]	@ 0x30
 8000538:	e06c      	b.n	8000614 <rcc_enable_gpio+0xf8>
    else if (gpio == GPIOB) RCC->AHB1ENR |= RCC_AHB1ENR_GPIOBEN;
 800053a:	687b      	ldr	r3, [r7, #4]
 800053c:	4a3c      	ldr	r2, [pc, #240]	@ (8000630 <rcc_enable_gpio+0x114>)
 800053e:	4293      	cmp	r3, r2
 8000540:	d106      	bne.n	8000550 <rcc_enable_gpio+0x34>
 8000542:	4b3a      	ldr	r3, [pc, #232]	@ (800062c <rcc_enable_gpio+0x110>)
 8000544:	6b1b      	ldr	r3, [r3, #48]	@ 0x30
 8000546:	4a39      	ldr	r2, [pc, #228]	@ (800062c <rcc_enable_gpio+0x110>)
 8000548:	f043 0302 	orr.w	r3, r3, #2
 800054c:	6313      	str	r3, [r2, #48]	@ 0x30
 800054e:	e061      	b.n	8000614 <rcc_enable_gpio+0xf8>
    else if (gpio == GPIOC) RCC->AHB1ENR |= RCC_AHB1ENR_GPIOCEN;
 8000550:	687b      	ldr	r3, [r7, #4]
 8000552:	4a38      	ldr	r2, [pc, #224]	@ (8000634 <rcc_enable_gpio+0x118>)
 8000554:	4293      	cmp	r3, r2
 8000556:	d106      	bne.n	8000566 <rcc_enable_gpio+0x4a>
 8000558:	4b34      	ldr	r3, [pc, #208]	@ (800062c <rcc_enable_gpio+0x110>)
 800055a:	6b1b      	ldr	r3, [r3, #48]	@ 0x30
 800055c:	4a33      	ldr	r2, [pc, #204]	@ (800062c <rcc_enable_gpio+0x110>)
 800055e:	f043 0304 	orr.w	r3, r3, #4
 8000562:	6313      	str	r3, [r2, #48]	@ 0x30
 8000564:	e056      	b.n	8000614 <rcc_enable_gpio+0xf8>
    else if (gpio == GPIOD) RCC->AHB1ENR |= RCC_AHB1ENR_GPIODEN;
 8000566:	687b      	ldr	r3, [r7, #4]
 8000568:	4a33      	ldr	r2, [pc, #204]	@ (8000638 <rcc_enable_gpio+0x11c>)
 800056a:	4293      	cmp	r3, r2
 800056c:	d106      	bne.n	800057c <rcc_enable_gpio+0x60>
 800056e:	4b2f      	ldr	r3, [pc, #188]	@ (800062c <rcc_enable_gpio+0x110>)
 8000570:	6b1b      	ldr	r3, [r3, #48]	@ 0x30
 8000572:	4a2e      	ldr	r2, [pc, #184]	@ (800062c <rcc_enable_gpio+0x110>)
 8000574:	f043 0308 	orr.w	r3, r3, #8
 8000578:	6313      	str	r3, [r2, #48]	@ 0x30
 800057a:	e04b      	b.n	8000614 <rcc_enable_gpio+0xf8>
    else if (gpio == GPIOE) RCC->AHB1ENR |= RCC_AHB1ENR_GPIOEEN;
 800057c:	687b      	ldr	r3, [r7, #4]
 800057e:	4a2f      	ldr	r2, [pc, #188]	@ (800063c <rcc_enable_gpio+0x120>)
 8000580:	4293      	cmp	r3, r2
 8000582:	d106      	bne.n	8000592 <rcc_enable_gpio+0x76>
 8000584:	4b29      	ldr	r3, [pc, #164]	@ (800062c <rcc_enable_gpio+0x110>)
 8000586:	6b1b      	ldr	r3, [r3, #48]	@ 0x30
 8000588:	4a28      	ldr	r2, [pc, #160]	@ (800062c <rcc_enable_gpio+0x110>)
 800058a:	f043 0310 	orr.w	r3, r3, #16
 800058e:	6313      	str	r3, [r2, #48]	@ 0x30
 8000590:	e040      	b.n	8000614 <rcc_enable_gpio+0xf8>
    else if (gpio == GPIOF) RCC->AHB1ENR |= RCC_AHB1ENR_GPIOFEN;
 8000592:	687b      	ldr	r3, [r7, #4]
 8000594:	4a2a      	ldr	r2, [pc, #168]	@ (8000640 <rcc_enable_gpio+0x124>)
 8000596:	4293      	cmp	r3, r2
 8000598:	d106      	bne.n	80005a8 <rcc_enable_gpio+0x8c>
 800059a:	4b24      	ldr	r3, [pc, #144]	@ (800062c <rcc_enable_gpio+0x110>)
 800059c:	6b1b      	ldr	r3, [r3, #48]	@ 0x30
 800059e:	4a23      	ldr	r2, [pc, #140]	@ (800062c <rcc_enable_gpio+0x110>)
 80005a0:	f043 0320 	orr.w	r3, r3, #32
 80005a4:	6313      	str	r3, [r2, #48]	@ 0x30
 80005a6:	e035      	b.n	8000614 <rcc_enable_gpio+0xf8>
    else if (gpio == GPIOG) RCC->AHB1ENR |= RCC_AHB1ENR_GPIOGEN;
 80005a8:	687b      	ldr	r3, [r7, #4]
 80005aa:	4a26      	ldr	r2, [pc, #152]	@ (8000644 <rcc_enable_gpio+0x128>)
 80005ac:	4293      	cmp	r3, r2
 80005ae:	d106      	bne.n	80005be <rcc_enable_gpio+0xa2>
 80005b0:	4b1e      	ldr	r3, [pc, #120]	@ (800062c <rcc_enable_gpio+0x110>)
 80005b2:	6b1b      	ldr	r3, [r3, #48]	@ 0x30
 80005b4:	4a1d      	ldr	r2, [pc, #116]	@ (800062c <rcc_enable_gpio+0x110>)
 80005b6:	f043 0340 	orr.w	r3, r3, #64	@ 0x40
 80005ba:	6313      	str	r3, [r2, #48]	@ 0x30
 80005bc:	e02a      	b.n	8000614 <rcc_enable_gpio+0xf8>
    else if (gpio == GPIOH) RCC->AHB1ENR |= RCC_AHB1ENR_GPIOHEN;
 80005be:	687b      	ldr	r3, [r7, #4]
 80005c0:	4a21      	ldr	r2, [pc, #132]	@ (8000648 <rcc_enable_gpio+0x12c>)
 80005c2:	4293      	cmp	r3, r2
 80005c4:	d106      	bne.n	80005d4 <rcc_enable_gpio+0xb8>
 80005c6:	4b19      	ldr	r3, [pc, #100]	@ (800062c <rcc_enable_gpio+0x110>)
 80005c8:	6b1b      	ldr	r3, [r3, #48]	@ 0x30
 80005ca:	4a18      	ldr	r2, [pc, #96]	@ (800062c <rcc_enable_gpio+0x110>)
 80005cc:	f043 0380 	orr.w	r3, r3, #128	@ 0x80
 80005d0:	6313      	str	r3, [r2, #48]	@ 0x30
 80005d2:	e01f      	b.n	8000614 <rcc_enable_gpio+0xf8>
    else if (gpio == GPIOI) RCC->AHB1ENR |= RCC_AHB1ENR_GPIOIEN;
 80005d4:	687b      	ldr	r3, [r7, #4]
 80005d6:	4a1d      	ldr	r2, [pc, #116]	@ (800064c <rcc_enable_gpio+0x130>)
 80005d8:	4293      	cmp	r3, r2
 80005da:	d106      	bne.n	80005ea <rcc_enable_gpio+0xce>
 80005dc:	4b13      	ldr	r3, [pc, #76]	@ (800062c <rcc_enable_gpio+0x110>)
 80005de:	6b1b      	ldr	r3, [r3, #48]	@ 0x30
 80005e0:	4a12      	ldr	r2, [pc, #72]	@ (800062c <rcc_enable_gpio+0x110>)
 80005e2:	f443 7380 	orr.w	r3, r3, #256	@ 0x100
 80005e6:	6313      	str	r3, [r2, #48]	@ 0x30
 80005e8:	e014      	b.n	8000614 <rcc_enable_gpio+0xf8>
    else if (gpio == GPIOJ) RCC->AHB1ENR |= RCC_AHB1ENR_GPIOJEN;
 80005ea:	687b      	ldr	r3, [r7, #4]
 80005ec:	4a18      	ldr	r2, [pc, #96]	@ (8000650 <rcc_enable_gpio+0x134>)
 80005ee:	4293      	cmp	r3, r2
 80005f0:	d106      	bne.n	8000600 <rcc_enable_gpio+0xe4>
 80005f2:	4b0e      	ldr	r3, [pc, #56]	@ (800062c <rcc_enable_gpio+0x110>)
 80005f4:	6b1b      	ldr	r3, [r3, #48]	@ 0x30
 80005f6:	4a0d      	ldr	r2, [pc, #52]	@ (800062c <rcc_enable_gpio+0x110>)
 80005f8:	f443 7300 	orr.w	r3, r3, #512	@ 0x200
 80005fc:	6313      	str	r3, [r2, #48]	@ 0x30
 80005fe:	e009      	b.n	8000614 <rcc_enable_gpio+0xf8>
    else if (gpio == GPIOK) RCC->AHB1ENR |= RCC_AHB1ENR_GPIOKEN;
 8000600:	687b      	ldr	r3, [r7, #4]
 8000602:	4a14      	ldr	r2, [pc, #80]	@ (8000654 <rcc_enable_gpio+0x138>)
 8000604:	4293      	cmp	r3, r2
 8000606:	d108      	bne.n	800061a <rcc_enable_gpio+0xfe>
 8000608:	4b08      	ldr	r3, [pc, #32]	@ (800062c <rcc_enable_gpio+0x110>)
 800060a:	6b1b      	ldr	r3, [r3, #48]	@ 0x30
 800060c:	4a07      	ldr	r2, [pc, #28]	@ (800062c <rcc_enable_gpio+0x110>)
 800060e:	f443 6380 	orr.w	r3, r3, #1024	@ 0x400
 8000612:	6313      	str	r3, [r2, #48]	@ 0x30
    else return;

    // Read-back to ensure the write completes before peripheral access
    (void)RCC->AHB1ENR;
 8000614:	4b05      	ldr	r3, [pc, #20]	@ (800062c <rcc_enable_gpio+0x110>)
 8000616:	6b1b      	ldr	r3, [r3, #48]	@ 0x30
 8000618:	e000      	b.n	800061c <rcc_enable_gpio+0x100>
    else return;
 800061a:	bf00      	nop
}
 800061c:	370c      	adds	r7, #12
 800061e:	46bd      	mov	sp, r7
 8000620:	f85d 7b04 	ldr.w	r7, [sp], #4
 8000624:	4770      	bx	lr
 8000626:	bf00      	nop
 8000628:	40020000 	.word	0x40020000
 800062c:	40023800 	.word	0x40023800
 8000630:	40020400 	.word	0x40020400
 8000634:	40020800 	.word	0x40020800
 8000638:	40020c00 	.word	0x40020c00
 800063c:	40021000 	.word	0x40021000
 8000640:	40021400 	.word	0x40021400
 8000644:	40021800 	.word	0x40021800
 8000648:	40021c00 	.word	0x40021c00
 800064c:	40022000 	.word	0x40022000
 8000650:	40022400 	.word	0x40022400
 8000654:	40022800 	.word	0x40022800

08000658 <SCB_EnableICache>:
/**
  \brief   Enable I-Cache
  \details Turns on I-Cache
  */
__STATIC_INLINE void SCB_EnableICache (void)
{
 8000658:	b480      	push	{r7}
 800065a:	af00      	add	r7, sp, #0
  __ASM volatile ("dsb 0xF":::"memory");
 800065c:	f3bf 8f4f 	dsb	sy
}
 8000660:	bf00      	nop
  __ASM volatile ("isb 0xF":::"memory");
 8000662:	f3bf 8f6f 	isb	sy
}
 8000666:	bf00      	nop
  #if defined (__ICACHE_PRESENT) && (__ICACHE_PRESENT == 1U)
    __DSB();
    __ISB();
    SCB->ICIALLU = 0UL;                     /* invalidate I-Cache */
 8000668:	4b0d      	ldr	r3, [pc, #52]	@ (80006a0 <SCB_EnableICache+0x48>)
 800066a:	2200      	movs	r2, #0
 800066c:	f8c3 2250 	str.w	r2, [r3, #592]	@ 0x250
  __ASM volatile ("dsb 0xF":::"memory");
 8000670:	f3bf 8f4f 	dsb	sy
}
 8000674:	bf00      	nop
  __ASM volatile ("isb 0xF":::"memory");
 8000676:	f3bf 8f6f 	isb	sy
}
 800067a:	bf00      	nop
    __DSB();
    __ISB();
    SCB->CCR |=  (uint32_t)SCB_CCR_IC_Msk;  /* enable I-Cache */
 800067c:	4b08      	ldr	r3, [pc, #32]	@ (80006a0 <SCB_EnableICache+0x48>)
 800067e:	695b      	ldr	r3, [r3, #20]
 8000680:	4a07      	ldr	r2, [pc, #28]	@ (80006a0 <SCB_EnableICache+0x48>)
 8000682:	f443 3300 	orr.w	r3, r3, #131072	@ 0x20000
 8000686:	6153      	str	r3, [r2, #20]
  __ASM volatile ("dsb 0xF":::"memory");
 8000688:	f3bf 8f4f 	dsb	sy
}
 800068c:	bf00      	nop
  __ASM volatile ("isb 0xF":::"memory");
 800068e:	f3bf 8f6f 	isb	sy
}
 8000692:	bf00      	nop
    __DSB();
    __ISB();
  #endif
}
 8000694:	bf00      	nop
 8000696:	46bd      	mov	sp, r7
 8000698:	f85d 7b04 	ldr.w	r7, [sp], #4
 800069c:	4770      	bx	lr
 800069e:	bf00      	nop
 80006a0:	e000ed00 	.word	0xe000ed00

080006a4 <SCB_EnableDCache>:
/**
  \brief   Enable D-Cache
  \details Turns on D-Cache
  */
__STATIC_INLINE void SCB_EnableDCache (void)
{
 80006a4:	b480      	push	{r7}
 80006a6:	b085      	sub	sp, #20
 80006a8:	af00      	add	r7, sp, #0
  #if defined (__DCACHE_PRESENT) && (__DCACHE_PRESENT == 1U)
    uint32_t ccsidr;
    uint32_t sets;
    uint32_t ways;

    SCB->CSSELR = 0U; /*(0U << 1U) | 0U;*/  /* Level 1 data cache */
 80006aa:	4b1f      	ldr	r3, [pc, #124]	@ (8000728 <SCB_EnableDCache+0x84>)
 80006ac:	2200      	movs	r2, #0
 80006ae:	f8c3 2084 	str.w	r2, [r3, #132]	@ 0x84
  __ASM volatile ("dsb 0xF":::"memory");
 80006b2:	f3bf 8f4f 	dsb	sy
}
 80006b6:	bf00      	nop
    __DSB();

    ccsidr = SCB->CCSIDR;
 80006b8:	4b1b      	ldr	r3, [pc, #108]	@ (8000728 <SCB_EnableDCache+0x84>)
 80006ba:	f8d3 3080 	ldr.w	r3, [r3, #128]	@ 0x80
 80006be:	607b      	str	r3, [r7, #4]

                                            /* invalidate D-Cache */
    sets = (uint32_t)(CCSIDR_SETS(ccsidr));
 80006c0:	687b      	ldr	r3, [r7, #4]
 80006c2:	0b5b      	lsrs	r3, r3, #13
 80006c4:	f3c3 030e 	ubfx	r3, r3, #0, #15
 80006c8:	60fb      	str	r3, [r7, #12]
    do {
      ways = (uint32_t)(CCSIDR_WAYS(ccsidr));
 80006ca:	687b      	ldr	r3, [r7, #4]
 80006cc:	08db      	lsrs	r3, r3, #3
 80006ce:	f3c3 0309 	ubfx	r3, r3, #0, #10
 80006d2:	60bb      	str	r3, [r7, #8]
      do {
        SCB->DCISW = (((sets << SCB_DCISW_SET_Pos) & SCB_DCISW_SET_Msk) |
 80006d4:	68fb      	ldr	r3, [r7, #12]
 80006d6:	015a      	lsls	r2, r3, #5
 80006d8:	f643 73e0 	movw	r3, #16352	@ 0x3fe0
 80006dc:	4013      	ands	r3, r2
                      ((ways << SCB_DCISW_WAY_Pos) & SCB_DCISW_WAY_Msk)  );
 80006de:	68ba      	ldr	r2, [r7, #8]
 80006e0:	0792      	lsls	r2, r2, #30
        SCB->DCISW = (((sets << SCB_DCISW_SET_Pos) & SCB_DCISW_SET_Msk) |
 80006e2:	4911      	ldr	r1, [pc, #68]	@ (8000728 <SCB_EnableDCache+0x84>)
 80006e4:	4313      	orrs	r3, r2
 80006e6:	f8c1 3260 	str.w	r3, [r1, #608]	@ 0x260
        #if defined ( __CC_ARM )
          __schedule_barrier();
        #endif
      } while (ways-- != 0U);
 80006ea:	68bb      	ldr	r3, [r7, #8]
 80006ec:	1e5a      	subs	r2, r3, #1
 80006ee:	60ba      	str	r2, [r7, #8]
 80006f0:	2b00      	cmp	r3, #0
 80006f2:	d1ef      	bne.n	80006d4 <SCB_EnableDCache+0x30>
    } while(sets-- != 0U);
 80006f4:	68fb      	ldr	r3, [r7, #12]
 80006f6:	1e5a      	subs	r2, r3, #1
 80006f8:	60fa      	str	r2, [r7, #12]
 80006fa:	2b00      	cmp	r3, #0
 80006fc:	d1e5      	bne.n	80006ca <SCB_EnableDCache+0x26>
  __ASM volatile ("dsb 0xF":::"memory");
 80006fe:	f3bf 8f4f 	dsb	sy
}
 8000702:	bf00      	nop
    __DSB();

    SCB->CCR |=  (uint32_t)SCB_CCR_DC_Msk;  /* enable D-Cache */
 8000704:	4b08      	ldr	r3, [pc, #32]	@ (8000728 <SCB_EnableDCache+0x84>)
 8000706:	695b      	ldr	r3, [r3, #20]
 8000708:	4a07      	ldr	r2, [pc, #28]	@ (8000728 <SCB_EnableDCache+0x84>)
 800070a:	f443 3380 	orr.w	r3, r3, #65536	@ 0x10000
 800070e:	6153      	str	r3, [r2, #20]
  __ASM volatile ("dsb 0xF":::"memory");
 8000710:	f3bf 8f4f 	dsb	sy
}
 8000714:	bf00      	nop
  __ASM volatile ("isb 0xF":::"memory");
 8000716:	f3bf 8f6f 	isb	sy
}
 800071a:	bf00      	nop

    __DSB();
    __ISB();
  #endif
}
 800071c:	bf00      	nop
 800071e:	3714      	adds	r7, #20
 8000720:	46bd      	mov	sp, r7
 8000722:	f85d 7b04 	ldr.w	r7, [sp], #4
 8000726:	4770      	bx	lr
 8000728:	e000ed00 	.word	0xe000ed00

0800072c <fpu_enable>:
 *      Author: ghrug
 */
#include <system.h>

void fpu_enable(void)
{
 800072c:	b480      	push	{r7}
 800072e:	af00      	add	r7, sp, #0
    // Enable CP10 and CP11 full access (Cortex-M7 FPU)
    SCB->CPACR |= (0xFu << 20);
 8000730:	4b09      	ldr	r3, [pc, #36]	@ (8000758 <fpu_enable+0x2c>)
 8000732:	f8d3 3088 	ldr.w	r3, [r3, #136]	@ 0x88
 8000736:	4a08      	ldr	r2, [pc, #32]	@ (8000758 <fpu_enable+0x2c>)
 8000738:	f443 0370 	orr.w	r3, r3, #15728640	@ 0xf00000
 800073c:	f8c2 3088 	str.w	r3, [r2, #136]	@ 0x88
  __ASM volatile ("isb 0xF":::"memory");
 8000740:	f3bf 8f6f 	isb	sy
}
 8000744:	bf00      	nop
  __ASM volatile ("dsb 0xF":::"memory");
 8000746:	f3bf 8f4f 	dsb	sy
}
 800074a:	bf00      	nop

    // Flush pipeline / ensure effect takes place immediately
    __ISB();
    __DSB();
}
 800074c:	bf00      	nop
 800074e:	46bd      	mov	sp, r7
 8000750:	f85d 7b04 	ldr.w	r7, [sp], #4
 8000754:	4770      	bx	lr
 8000756:	bf00      	nop
 8000758:	e000ed00 	.word	0xe000ed00

0800075c <cache_enable>:

void cache_enable(void)
{
 800075c:	b580      	push	{r7, lr}
 800075e:	af00      	add	r7, sp, #0
    SCB_EnableICache();   // invalidates + enables I-cache
 8000760:	f7ff ff7a 	bl	8000658 <SCB_EnableICache>
    SCB_EnableDCache();   // invalidates + enables D-cache
 8000764:	f7ff ff9e 	bl	80006a4 <SCB_EnableDCache>
}
 8000768:	bf00      	nop
 800076a:	bd80      	pop	{r7, pc}

0800076c <mpu_init>:
    // Timeout ~2 seconds
    // Prevents system hang if code crashes
}

void mpu_init(void)
 {
 800076c:	b480      	push	{r7}
 800076e:	af00      	add	r7, sp, #0
     // Disable MPU during configuration
     MPU->CTRL = 0;
 8000770:	4b0e      	ldr	r3, [pc, #56]	@ (80007ac <mpu_init+0x40>)
 8000772:	2200      	movs	r2, #0
 8000774:	605a      	str	r2, [r3, #4]

     // Region 0: Flash (0x08000000, 2MB)
     MPU->RBAR = 0x08000000 | 0 | MPU_RBAR_VALID_Msk;
 8000776:	4b0d      	ldr	r3, [pc, #52]	@ (80007ac <mpu_init+0x40>)
 8000778:	4a0d      	ldr	r2, [pc, #52]	@ (80007b0 <mpu_init+0x44>)
 800077a:	60da      	str	r2, [r3, #12]
     MPU->RASR = (1 << 0)           // ENABLE
 800077c:	4b0b      	ldr	r3, [pc, #44]	@ (80007ac <mpu_init+0x40>)
 800077e:	4a0d      	ldr	r2, [pc, #52]	@ (80007b4 <mpu_init+0x48>)
 8000780:	611a      	str	r2, [r3, #16]
               | (0b101 << 24)          // AP: Privileged RO, User none
               | (0b1 << 20)          // C: Cacheable
               | (0b0 << 28);         // XN: Executable

     // Region 1: RAM (0x20000000, 512KB)
     MPU->RBAR = 0x20000000 | 1 | MPU_RBAR_VALID_Msk;
 8000782:	4b0a      	ldr	r3, [pc, #40]	@ (80007ac <mpu_init+0x40>)
 8000784:	4a0c      	ldr	r2, [pc, #48]	@ (80007b8 <mpu_init+0x4c>)
 8000786:	60da      	str	r2, [r3, #12]
     MPU->RASR = (1 << 0)           // ENABLE
 8000788:	4b08      	ldr	r3, [pc, #32]	@ (80007ac <mpu_init+0x40>)
 800078a:	4a0c      	ldr	r2, [pc, #48]	@ (80007bc <mpu_init+0x50>)
 800078c:	611a      	str	r2, [r3, #16]
               | (0b011 << 24)          // AP: Privileged RW, User none
               | (0b1 << 20)          // C: Cacheable
               | (0b1 << 28);         // XN: No execute (data only)

     // Region 2: Peripherals (0x40000000, 512MB)
     MPU->RBAR = 0x40000000 | 2 | MPU_RBAR_VALID_Msk;
 800078e:	4b07      	ldr	r3, [pc, #28]	@ (80007ac <mpu_init+0x40>)
 8000790:	4a0b      	ldr	r2, [pc, #44]	@ (80007c0 <mpu_init+0x54>)
 8000792:	60da      	str	r2, [r3, #12]
     MPU->RASR = (1 << 0)           // ENABLE
 8000794:	4b05      	ldr	r3, [pc, #20]	@ (80007ac <mpu_init+0x40>)
 8000796:	4a0b      	ldr	r2, [pc, #44]	@ (80007c4 <mpu_init+0x58>)
 8000798:	611a      	str	r2, [r3, #16]
               | (0b0 << 20)          // C: Not cacheable
               | (0b1 << 21)          // B: Bufferable
               | (0b1 << 28);         // XN: No execute

     // Enable MPU with privileged default background
     MPU->CTRL = (1 << 0) | (1 << 2);  // ENABLE and PRIVDEFENA
 800079a:	4b04      	ldr	r3, [pc, #16]	@ (80007ac <mpu_init+0x40>)
 800079c:	2205      	movs	r2, #5
 800079e:	605a      	str	r2, [r3, #4]
 }
 80007a0:	bf00      	nop
 80007a2:	46bd      	mov	sp, r7
 80007a4:	f85d 7b04 	ldr.w	r7, [sp], #4
 80007a8:	4770      	bx	lr
 80007aa:	bf00      	nop
 80007ac:	e000ed90 	.word	0xe000ed90
 80007b0:	08000010 	.word	0x08000010
 80007b4:	05100029 	.word	0x05100029
 80007b8:	20000011 	.word	0x20000011
 80007bc:	13100025 	.word	0x13100025
 80007c0:	40000012 	.word	0x40000012
 80007c4:	13200039 	.word	0x13200039

080007c8 <HardFault_Handler>:
    // Sleep modes for low-power operation
    // Configure voltage regulator
}

void HardFault_Handler(void)
{
 80007c8:	b480      	push	{r7}
 80007ca:	af00      	add	r7, sp, #0
    // Log error, reset, or halt gracefully
}
 80007cc:	bf00      	nop
 80007ce:	46bd      	mov	sp, r7
 80007d0:	f85d 7b04 	ldr.w	r7, [sp], #4
 80007d4:	4770      	bx	lr

080007d6 <MemManage_Handler>:

void MemManage_Handler(void)
{
 80007d6:	b480      	push	{r7}
 80007d8:	af00      	add	r7, sp, #0
    // Handle MPU violations
}
 80007da:	bf00      	nop
 80007dc:	46bd      	mov	sp, r7
 80007de:	f85d 7b04 	ldr.w	r7, [sp], #4
 80007e2:	4770      	bx	lr

080007e4 <system_init>:

void system_init(void)
{
 80007e4:	b580      	push	{r7, lr}
 80007e6:	af00      	add	r7, sp, #0
    // Order matters: enable FPU before any float code can run
    fpu_enable();
 80007e8:	f7ff ffa0 	bl	800072c <fpu_enable>

    // Configure clocks to 216 MHz before other operations
    clock_init();
 80007ec:	f7ff fd40 	bl	8000270 <clock_init>

    // Enable caches for improved performance at high frequency
    cache_enable();
 80007f0:	f7ff ffb4 	bl	800075c <cache_enable>

    mpu_init();
 80007f4:	f7ff ffba 	bl	800076c <mpu_init>

    // Only enable systick if not using RTOS
	#ifndef USING_RTOS
    //systick_init(CPU_FREQUENCY, TICK_FREQUENCY);
    timer_init(CPU_FREQUENCY, TICK_FREQUENCY);
 80007f8:	f44f 717a 	mov.w	r1, #1000	@ 0x3e8
 80007fc:	4802      	ldr	r0, [pc, #8]	@ (8000808 <system_init+0x24>)
 80007fe:	f000 f805 	bl	800080c <timer_init>
	#endif
}
 8000802:	bf00      	nop
 8000804:	bd80      	pop	{r7, pc}
 8000806:	bf00      	nop
 8000808:	0cdfe600 	.word	0x0cdfe600

0800080c <timer_init>:
   *
   * @param cpu_hz:  CPU frequency in Hz (e.g., 216000000 for 216 MHz)
   * @param tick_hz: Desired tick frequency in Hz (e.g., 1000 for 1 ms ticks)
   */
  void timer_init(uint32_t cpu_hz, uint32_t tick_hz)
  {
 800080c:	b480      	push	{r7}
 800080e:	b083      	sub	sp, #12
 8000810:	af00      	add	r7, sp, #0
 8000812:	6078      	str	r0, [r7, #4]
 8000814:	6039      	str	r1, [r7, #0]
      // Calculate reload value for SysTick timer
      // LOAD = (cpu_hz / tick_hz) - 1
      SysTick->LOAD = (cpu_hz / tick_hz) - 1U;
 8000816:	687a      	ldr	r2, [r7, #4]
 8000818:	683b      	ldr	r3, [r7, #0]
 800081a:	fbb2 f3f3 	udiv	r3, r2, r3
 800081e:	4a07      	ldr	r2, [pc, #28]	@ (800083c <timer_init+0x30>)
 8000820:	3b01      	subs	r3, #1
 8000822:	6053      	str	r3, [r2, #4]

      // Clear current value register and COUNTFLAG
      SysTick->VAL = 0U;
 8000824:	4b05      	ldr	r3, [pc, #20]	@ (800083c <timer_init+0x30>)
 8000826:	2200      	movs	r2, #0
 8000828:	609a      	str	r2, [r3, #8]

      // Configure SysTick control register:
      // - Use processor clock (not external reference clock)
      // - Enable SysTick exception (interrupt)
      // - Enable counter
      SysTick->CTRL = SysTick_CTRL_CLKSOURCE_Msk  // Processor clock
 800082a:	4b04      	ldr	r3, [pc, #16]	@ (800083c <timer_init+0x30>)
 800082c:	2207      	movs	r2, #7
 800082e:	601a      	str	r2, [r3, #0]
                    | SysTick_CTRL_TICKINT_Msk    // Enable SysTick interrupt
                    | SysTick_CTRL_ENABLE_Msk;    // Start counting
  }
 8000830:	bf00      	nop
 8000832:	370c      	adds	r7, #12
 8000834:	46bd      	mov	sp, r7
 8000836:	f85d 7b04 	ldr.w	r7, [sp], #4
 800083a:	4770      	bx	lr
 800083c:	e000e010 	.word	0xe000e010

08000840 <timer_get_ms>:
   * Get elapsed time in milliseconds since system start
   *
   * @return: Milliseconds elapsed (rolls over after ~49 days)
   */
  uint32_t timer_get_ms(void)
  {
 8000840:	b480      	push	{r7}
 8000842:	af00      	add	r7, sp, #0
      return systick_ms;
 8000844:	4b03      	ldr	r3, [pc, #12]	@ (8000854 <timer_get_ms+0x14>)
 8000846:	681b      	ldr	r3, [r3, #0]
  }
 8000848:	4618      	mov	r0, r3
 800084a:	46bd      	mov	sp, r7
 800084c:	f85d 7b04 	ldr.w	r7, [sp], #4
 8000850:	4770      	bx	lr
 8000852:	bf00      	nop
 8000854:	20000020 	.word	0x20000020

08000858 <timer_elapsed>:
   *   if (timer_elapsed(&led_timer, 1000)) {
   *       bsp_led_toggle();
   *   }
   */
  uint8_t timer_elapsed(uint32_t *last_tick, uint32_t interval_ms)
  {
 8000858:	b580      	push	{r7, lr}
 800085a:	b084      	sub	sp, #16
 800085c:	af00      	add	r7, sp, #0
 800085e:	6078      	str	r0, [r7, #4]
 8000860:	6039      	str	r1, [r7, #0]
      uint32_t now = timer_get_ms();
 8000862:	f7ff ffed 	bl	8000840 <timer_get_ms>
 8000866:	60f8      	str	r0, [r7, #12]
      uint32_t elapsed = now - *last_tick;
 8000868:	687b      	ldr	r3, [r7, #4]
 800086a:	681b      	ldr	r3, [r3, #0]
 800086c:	68fa      	ldr	r2, [r7, #12]
 800086e:	1ad3      	subs	r3, r2, r3
 8000870:	60bb      	str	r3, [r7, #8]

      if (elapsed >= interval_ms) {
 8000872:	68ba      	ldr	r2, [r7, #8]
 8000874:	683b      	ldr	r3, [r7, #0]
 8000876:	429a      	cmp	r2, r3
 8000878:	d304      	bcc.n	8000884 <timer_elapsed+0x2c>
          *last_tick = now;
 800087a:	687b      	ldr	r3, [r7, #4]
 800087c:	68fa      	ldr	r2, [r7, #12]
 800087e:	601a      	str	r2, [r3, #0]
          return 1;
 8000880:	2301      	movs	r3, #1
 8000882:	e000      	b.n	8000886 <timer_elapsed+0x2e>
      }
      return 0;
 8000884:	2300      	movs	r3, #0
  }
 8000886:	4618      	mov	r0, r3
 8000888:	3710      	adds	r7, #16
 800088a:	46bd      	mov	sp, r7
 800088c:	bd80      	pop	{r7, pc}
	...

08000890 <SysTick_Handler>:
  /*
   * SysTick interrupt service routine
   * Called every 1 ms by hardware timer
   */
  void SysTick_Handler(void)
  {
 8000890:	b480      	push	{r7}
 8000892:	af00      	add	r7, sp, #0
      systick_ms++;  // Increment millisecond counter
 8000894:	4b04      	ldr	r3, [pc, #16]	@ (80008a8 <SysTick_Handler+0x18>)
 8000896:	681b      	ldr	r3, [r3, #0]
 8000898:	3301      	adds	r3, #1
 800089a:	4a03      	ldr	r2, [pc, #12]	@ (80008a8 <SysTick_Handler+0x18>)
 800089c:	6013      	str	r3, [r2, #0]
  }
 800089e:	bf00      	nop
 80008a0:	46bd      	mov	sp, r7
 80008a2:	f85d 7b04 	ldr.w	r7, [sp], #4
 80008a6:	4770      	bx	lr
 80008a8:	20000020 	.word	0x20000020

080008ac <Reset_Handler>:

  .section .text.Reset_Handler
  .weak Reset_Handler
  .type Reset_Handler, %function
Reset_Handler:
  ldr   r0, =_estack
 80008ac:	480d      	ldr	r0, [pc, #52]	@ (80008e4 <LoopForever+0x2>)
  mov   sp, r0          /* set stack pointer */
 80008ae:	4685      	mov	sp, r0
/* Call the clock system initialization function.*/
  bl  SystemInit
 80008b0:	f3af 8000 	nop.w

/* Copy the data segment initializers from flash to SRAM */
  ldr r0, =_sdata
 80008b4:	480c      	ldr	r0, [pc, #48]	@ (80008e8 <LoopForever+0x6>)
  ldr r1, =_edata
 80008b6:	490d      	ldr	r1, [pc, #52]	@ (80008ec <LoopForever+0xa>)
  ldr r2, =_sidata
 80008b8:	4a0d      	ldr	r2, [pc, #52]	@ (80008f0 <LoopForever+0xe>)
  movs r3, #0
 80008ba:	2300      	movs	r3, #0
  b LoopCopyDataInit
 80008bc:	e002      	b.n	80008c4 <LoopCopyDataInit>

080008be <CopyDataInit>:

CopyDataInit:
  ldr r4, [r2, r3]
 80008be:	58d4      	ldr	r4, [r2, r3]
  str r4, [r0, r3]
 80008c0:	50c4      	str	r4, [r0, r3]
  adds r3, r3, #4
 80008c2:	3304      	adds	r3, #4

080008c4 <LoopCopyDataInit>:

LoopCopyDataInit:
  adds r4, r0, r3
 80008c4:	18c4      	adds	r4, r0, r3
  cmp r4, r1
 80008c6:	428c      	cmp	r4, r1
  bcc CopyDataInit
 80008c8:	d3f9      	bcc.n	80008be <CopyDataInit>

/* Zero fill the bss segment. */
  ldr r2, =_sbss
 80008ca:	4a0a      	ldr	r2, [pc, #40]	@ (80008f4 <LoopForever+0x12>)
  ldr r4, =_ebss
 80008cc:	4c0a      	ldr	r4, [pc, #40]	@ (80008f8 <LoopForever+0x16>)
  movs r3, #0
 80008ce:	2300      	movs	r3, #0
  b LoopFillZerobss
 80008d0:	e001      	b.n	80008d6 <LoopFillZerobss>

080008d2 <FillZerobss>:

FillZerobss:
  str  r3, [r2]
 80008d2:	6013      	str	r3, [r2, #0]
  adds r2, r2, #4
 80008d4:	3204      	adds	r2, #4

080008d6 <LoopFillZerobss>:

LoopFillZerobss:
  cmp r2, r4
 80008d6:	42a2      	cmp	r2, r4
  bcc FillZerobss
 80008d8:	d3fb      	bcc.n	80008d2 <FillZerobss>

/* Call static constructors */
  bl __libc_init_array
 80008da:	f000 f811 	bl	8000900 <__libc_init_array>
/* Call the application's entry point.*/
  bl main
 80008de:	f7ff fe08 	bl	80004f2 <main>

080008e2 <LoopForever>:

LoopForever:
  b LoopForever
 80008e2:	e7fe      	b.n	80008e2 <LoopForever>
  ldr   r0, =_estack
 80008e4:	20080000 	.word	0x20080000
  ldr r0, =_sdata
 80008e8:	20000000 	.word	0x20000000
  ldr r1, =_edata
 80008ec:	20000004 	.word	0x20000004
  ldr r2, =_sidata
 80008f0:	08000970 	.word	0x08000970
  ldr r2, =_sbss
 80008f4:	20000004 	.word	0x20000004
  ldr r4, =_ebss
 80008f8:	20000024 	.word	0x20000024

080008fc <ADC_IRQHandler>:
 * @retval : None
*/
  .section .text.Default_Handler,"ax",%progbits
Default_Handler:
Infinite_Loop:
  b Infinite_Loop
 80008fc:	e7fe      	b.n	80008fc <ADC_IRQHandler>
	...

08000900 <__libc_init_array>:
 8000900:	b570      	push	{r4, r5, r6, lr}
 8000902:	4d0d      	ldr	r5, [pc, #52]	@ (8000938 <__libc_init_array+0x38>)
 8000904:	4c0d      	ldr	r4, [pc, #52]	@ (800093c <__libc_init_array+0x3c>)
 8000906:	1b64      	subs	r4, r4, r5
 8000908:	10a4      	asrs	r4, r4, #2
 800090a:	2600      	movs	r6, #0
 800090c:	42a6      	cmp	r6, r4
 800090e:	d109      	bne.n	8000924 <__libc_init_array+0x24>
 8000910:	4d0b      	ldr	r5, [pc, #44]	@ (8000940 <__libc_init_array+0x40>)
 8000912:	4c0c      	ldr	r4, [pc, #48]	@ (8000944 <__libc_init_array+0x44>)
 8000914:	f000 f818 	bl	8000948 <_init>
 8000918:	1b64      	subs	r4, r4, r5
 800091a:	10a4      	asrs	r4, r4, #2
 800091c:	2600      	movs	r6, #0
 800091e:	42a6      	cmp	r6, r4
 8000920:	d105      	bne.n	800092e <__libc_init_array+0x2e>
 8000922:	bd70      	pop	{r4, r5, r6, pc}
 8000924:	f855 3b04 	ldr.w	r3, [r5], #4
 8000928:	4798      	blx	r3
 800092a:	3601      	adds	r6, #1
 800092c:	e7ee      	b.n	800090c <__libc_init_array+0xc>
 800092e:	f855 3b04 	ldr.w	r3, [r5], #4
 8000932:	4798      	blx	r3
 8000934:	3601      	adds	r6, #1
 8000936:	e7f2      	b.n	800091e <__libc_init_array+0x1e>
 8000938:	08000968 	.word	0x08000968
 800093c:	08000968 	.word	0x08000968
 8000940:	08000968 	.word	0x08000968
 8000944:	0800096c 	.word	0x0800096c

08000948 <_init>:
 8000948:	b5f8      	push	{r3, r4, r5, r6, r7, lr}
 800094a:	bf00      	nop
 800094c:	bcf8      	pop	{r3, r4, r5, r6, r7}
 800094e:	bc08      	pop	{r3}
 8000950:	469e      	mov	lr, r3
 8000952:	4770      	bx	lr

08000954 <_fini>:
 8000954:	b5f8      	push	{r3, r4, r5, r6, r7, lr}
 8000956:	bf00      	nop
 8000958:	bcf8      	pop	{r3, r4, r5, r6, r7}
 800095a:	bc08      	pop	{r3}
 800095c:	469e      	mov	lr, r3
 800095e:	4770      	bx	lr
