
BearMetal.elf:     file format elf32-littlearm

Sections:
Idx Name          Size      VMA       LMA       File off  Algn
  0 .isr_vector   000001f8  08000000  08000000  00001000  2**0
                  CONTENTS, ALLOC, LOAD, READONLY, DATA
  1 .text         000002f0  080001f8  080001f8  000011f8  2**2
                  CONTENTS, ALLOC, LOAD, READONLY, CODE
  2 .rodata       00000008  080004e8  080004e8  000014e8  2**0
                  CONTENTS, ALLOC, LOAD, READONLY, DATA
  3 .ARM.extab    00000000  080004f0  080004f0  000014f8  2**0
                  CONTENTS
  4 .ARM          00000000  080004f0  080004f0  000014f8  2**0
                  CONTENTS
  5 .preinit_array 00000000  080004f0  080004f8  000014f8  2**0
                  CONTENTS, ALLOC, LOAD, DATA
  6 .init_array   00000004  080004f0  080004f0  000014f0  2**2
                  CONTENTS, ALLOC, LOAD, READONLY, DATA
  7 .fini_array   00000004  080004f4  080004f4  000014f4  2**2
                  CONTENTS, ALLOC, LOAD, READONLY, DATA
  8 .data         00000000  20000000  20000000  000014f8  2**0
                  CONTENTS, ALLOC, LOAD, DATA
  9 .bss          0000001c  20000000  080004f8  00002000  2**2
                  ALLOC
 10 ._user_heap_stack 00000604  2000001c  080004f8  0000201c  2**0
                  ALLOC
 11 .ARM.attributes 0000002e  00000000  00000000  000014f8  2**0
                  CONTENTS, READONLY
 12 .comment      00000043  00000000  00000000  00001526  2**0
                  CONTENTS, READONLY
 13 .debug_frame  0000002c  00000000  00000000  0000156c  2**2
                  CONTENTS, READONLY, DEBUGGING, OCTETS

Disassembly of section .text:

080001f8 <__do_global_dtors_aux>:
 80001f8:	b510      	push	{r4, lr}
 80001fa:	4c05      	ldr	r4, [pc, #20]	@ (8000210 <__do_global_dtors_aux+0x18>)
 80001fc:	7823      	ldrb	r3, [r4, #0]
 80001fe:	b933      	cbnz	r3, 800020e <__do_global_dtors_aux+0x16>
 8000200:	4b04      	ldr	r3, [pc, #16]	@ (8000214 <__do_global_dtors_aux+0x1c>)
 8000202:	b113      	cbz	r3, 800020a <__do_global_dtors_aux+0x12>
 8000204:	4804      	ldr	r0, [pc, #16]	@ (8000218 <__do_global_dtors_aux+0x20>)
 8000206:	f3af 8000 	nop.w
 800020a:	2301      	movs	r3, #1
 800020c:	7023      	strb	r3, [r4, #0]
 800020e:	bd10      	pop	{r4, pc}
 8000210:	20000000 	.word	0x20000000
 8000214:	00000000 	.word	0x00000000
 8000218:	080004d0 	.word	0x080004d0

0800021c <frame_dummy>:
 800021c:	b508      	push	{r3, lr}
 800021e:	4b03      	ldr	r3, [pc, #12]	@ (800022c <frame_dummy+0x10>)
 8000220:	b11b      	cbz	r3, 800022a <frame_dummy+0xe>
 8000222:	4903      	ldr	r1, [pc, #12]	@ (8000230 <frame_dummy+0x14>)
 8000224:	4803      	ldr	r0, [pc, #12]	@ (8000234 <frame_dummy+0x18>)
 8000226:	f3af 8000 	nop.w
 800022a:	bd08      	pop	{r3, pc}
 800022c:	00000000 	.word	0x00000000
 8000230:	20000004 	.word	0x20000004
 8000234:	080004d0 	.word	0x080004d0

08000238 <bsp_init>:
 8000238:	b510      	push	{r4, lr}
 800023a:	4c05      	ldr	r4, [pc, #20]	@ (8000250 <bsp_init+0x18>)
 800023c:	4620      	mov	r0, r4
 800023e:	f000 f875 	bl	800032c <rcc_enable_gpio>
 8000242:	4620      	mov	r0, r4
 8000244:	4a03      	ldr	r2, [pc, #12]	@ (8000254 <bsp_init+0x1c>)
 8000246:	2100      	movs	r1, #0
 8000248:	e8bd 4010 	ldmia.w	sp!, {r4, lr}
 800024c:	f000 b80a 	b.w	8000264 <gpio_config>
 8000250:	40020400 	.word	0x40020400
 8000254:	080004e8 	.word	0x080004e8

08000258 <bsp_led_toggle>:
 8000258:	2100      	movs	r1, #0
 800025a:	4801      	ldr	r0, [pc, #4]	@ (8000260 <bsp_led_toggle+0x8>)
 800025c:	f000 b84c 	b.w	80002f8 <gpio_toggle>
 8000260:	40020400 	.word	0x40020400

08000264 <gpio_config>:
 8000264:	b5f0      	push	{r4, r5, r6, r7, lr}
 8000266:	004e      	lsls	r6, r1, #1
 8000268:	7814      	ldrb	r4, [r2, #0]
 800026a:	2703      	movs	r7, #3
 800026c:	f8d0 c000 	ldr.w	ip, [r0]
 8000270:	f004 0303 	and.w	r3, r4, #3
 8000274:	40b7      	lsls	r7, r6
 8000276:	40b3      	lsls	r3, r6
 8000278:	ea2c 0c07 	bic.w	ip, ip, r7
 800027c:	43fd      	mvns	r5, r7
 800027e:	ea43 030c 	orr.w	r3, r3, ip
 8000282:	6003      	str	r3, [r0, #0]
 8000284:	78d3      	ldrb	r3, [r2, #3]
 8000286:	f8d0 c00c 	ldr.w	ip, [r0, #12]
 800028a:	f003 0303 	and.w	r3, r3, #3
 800028e:	ea2c 0707 	bic.w	r7, ip, r7
 8000292:	40b3      	lsls	r3, r6
 8000294:	433b      	orrs	r3, r7
 8000296:	60c3      	str	r3, [r0, #12]
 8000298:	1e63      	subs	r3, r4, #1
 800029a:	2b01      	cmp	r3, #1
 800029c:	d82b      	bhi.n	80002f6 <gpio_config+0x92>
 800029e:	2701      	movs	r7, #1
 80002a0:	6843      	ldr	r3, [r0, #4]
 80002a2:	2c02      	cmp	r4, #2
 80002a4:	fa07 f701 	lsl.w	r7, r7, r1
 80002a8:	ea23 0307 	bic.w	r3, r3, r7
 80002ac:	7857      	ldrb	r7, [r2, #1]
 80002ae:	f007 0701 	and.w	r7, r7, #1
 80002b2:	fa07 f701 	lsl.w	r7, r7, r1
 80002b6:	ea43 0307 	orr.w	r3, r3, r7
 80002ba:	6043      	str	r3, [r0, #4]
 80002bc:	7893      	ldrb	r3, [r2, #2]
 80002be:	6887      	ldr	r7, [r0, #8]
 80002c0:	f003 0303 	and.w	r3, r3, #3
 80002c4:	ea05 0507 	and.w	r5, r5, r7
 80002c8:	fa03 f306 	lsl.w	r3, r3, r6
 80002cc:	ea43 0305 	orr.w	r3, r3, r5
 80002d0:	6083      	str	r3, [r0, #8]
 80002d2:	d110      	bne.n	80002f6 <gpio_config+0x92>
 80002d4:	f001 0407 	and.w	r4, r1, #7
 80002d8:	08c9      	lsrs	r1, r1, #3
 80002da:	7912      	ldrb	r2, [r2, #4]
 80002dc:	eb00 0081 	add.w	r0, r0, r1, lsl #2
 80002e0:	210f      	movs	r1, #15
 80002e2:	00a4      	lsls	r4, r4, #2
 80002e4:	f002 020f 	and.w	r2, r2, #15
 80002e8:	6a03      	ldr	r3, [r0, #32]
 80002ea:	40a1      	lsls	r1, r4
 80002ec:	40a2      	lsls	r2, r4
 80002ee:	ea23 0301 	bic.w	r3, r3, r1
 80002f2:	4313      	orrs	r3, r2
 80002f4:	6203      	str	r3, [r0, #32]
 80002f6:	bdf0      	pop	{r4, r5, r6, r7, pc}

080002f8 <gpio_toggle>:
 80002f8:	2301      	movs	r3, #1
 80002fa:	fa03 f101 	lsl.w	r1, r3, r1
 80002fe:	6943      	ldr	r3, [r0, #20]
 8000300:	420b      	tst	r3, r1
 8000302:	bf18      	it	ne
 8000304:	0409      	lslne	r1, r1, #16
 8000306:	6181      	str	r1, [r0, #24]
 8000308:	4770      	bx	lr
	...

0800030c <main>:
 800030c:	b508      	push	{r3, lr}
 800030e:	f000 f88f 	bl	8000430 <global_init>
 8000312:	f7ff ff91 	bl	8000238 <bsp_init>
 8000316:	f7ff ff9f 	bl	8000258 <bsp_led_toggle>
 800031a:	4b03      	ldr	r3, [pc, #12]	@ (8000328 <main+0x1c>)
 800031c:	461a      	mov	r2, r3
 800031e:	3b01      	subs	r3, #1
 8000320:	2a00      	cmp	r2, #0
 8000322:	d0f8      	beq.n	8000316 <main+0xa>
 8000324:	bf00      	nop
 8000326:	e7f9      	b.n	800031c <main+0x10>
 8000328:	000f4240 	.word	0x000f4240

0800032c <rcc_enable_gpio>:
 800032c:	4b2d      	ldr	r3, [pc, #180]	@ (80003e4 <rcc_enable_gpio+0xb8>)
 800032e:	4298      	cmp	r0, r3
 8000330:	d107      	bne.n	8000342 <rcc_enable_gpio+0x16>
 8000332:	4a2d      	ldr	r2, [pc, #180]	@ (80003e8 <rcc_enable_gpio+0xbc>)
 8000334:	6b13      	ldr	r3, [r2, #48]	@ 0x30
 8000336:	f043 0301 	orr.w	r3, r3, #1
 800033a:	6313      	str	r3, [r2, #48]	@ 0x30
 800033c:	4b2a      	ldr	r3, [pc, #168]	@ (80003e8 <rcc_enable_gpio+0xbc>)
 800033e:	6b1b      	ldr	r3, [r3, #48]	@ 0x30
 8000340:	4770      	bx	lr
 8000342:	4b2a      	ldr	r3, [pc, #168]	@ (80003ec <rcc_enable_gpio+0xc0>)
 8000344:	4298      	cmp	r0, r3
 8000346:	d104      	bne.n	8000352 <rcc_enable_gpio+0x26>
 8000348:	4a27      	ldr	r2, [pc, #156]	@ (80003e8 <rcc_enable_gpio+0xbc>)
 800034a:	6b13      	ldr	r3, [r2, #48]	@ 0x30
 800034c:	f043 0302 	orr.w	r3, r3, #2
 8000350:	e7f3      	b.n	800033a <rcc_enable_gpio+0xe>
 8000352:	4b27      	ldr	r3, [pc, #156]	@ (80003f0 <rcc_enable_gpio+0xc4>)
 8000354:	4298      	cmp	r0, r3
 8000356:	d104      	bne.n	8000362 <rcc_enable_gpio+0x36>
 8000358:	4a23      	ldr	r2, [pc, #140]	@ (80003e8 <rcc_enable_gpio+0xbc>)
 800035a:	6b13      	ldr	r3, [r2, #48]	@ 0x30
 800035c:	f043 0304 	orr.w	r3, r3, #4
 8000360:	e7eb      	b.n	800033a <rcc_enable_gpio+0xe>
 8000362:	4b24      	ldr	r3, [pc, #144]	@ (80003f4 <rcc_enable_gpio+0xc8>)
 8000364:	4298      	cmp	r0, r3
 8000366:	d104      	bne.n	8000372 <rcc_enable_gpio+0x46>
 8000368:	4a1f      	ldr	r2, [pc, #124]	@ (80003e8 <rcc_enable_gpio+0xbc>)
 800036a:	6b13      	ldr	r3, [r2, #48]	@ 0x30
 800036c:	f043 0308 	orr.w	r3, r3, #8
 8000370:	e7e3      	b.n	800033a <rcc_enable_gpio+0xe>
 8000372:	4b21      	ldr	r3, [pc, #132]	@ (80003f8 <rcc_enable_gpio+0xcc>)
 8000374:	4298      	cmp	r0, r3
 8000376:	d104      	bne.n	8000382 <rcc_enable_gpio+0x56>
 8000378:	4a1b      	ldr	r2, [pc, #108]	@ (80003e8 <rcc_enable_gpio+0xbc>)
 800037a:	6b13      	ldr	r3, [r2, #48]	@ 0x30
 800037c:	f043 0310 	orr.w	r3, r3, #16
 8000380:	e7db      	b.n	800033a <rcc_enable_gpio+0xe>
 8000382:	4b1e      	ldr	r3, [pc, #120]	@ (80003fc <rcc_enable_gpio+0xd0>)
 8000384:	4298      	cmp	r0, r3
 8000386:	d104      	bne.n	8000392 <rcc_enable_gpio+0x66>
 8000388:	4a17      	ldr	r2, [pc, #92]	@ (80003e8 <rcc_enable_gpio+0xbc>)
 800038a:	6b13      	ldr	r3, [r2, #48]	@ 0x30
 800038c:	f043 0320 	orr.w	r3, r3, #32
 8000390:	e7d3      	b.n	800033a <rcc_enable_gpio+0xe>
 8000392:	4b1b      	ldr	r3, [pc, #108]	@ (8000400 <rcc_enable_gpio+0xd4>)
 8000394:	4298      	cmp	r0, r3
 8000396:	d104      	bne.n	80003a2 <rcc_enable_gpio+0x76>
 8000398:	4a13      	ldr	r2, [pc, #76]	@ (80003e8 <rcc_enable_gpio+0xbc>)
 800039a:	6b13      	ldr	r3, [r2, #48]	@ 0x30
 800039c:	f043 0340 	orr.w	r3, r3, #64	@ 0x40
 80003a0:	e7cb      	b.n	800033a <rcc_enable_gpio+0xe>
 80003a2:	4b18      	ldr	r3, [pc, #96]	@ (8000404 <rcc_enable_gpio+0xd8>)
 80003a4:	4298      	cmp	r0, r3
 80003a6:	d104      	bne.n	80003b2 <rcc_enable_gpio+0x86>
 80003a8:	4a0f      	ldr	r2, [pc, #60]	@ (80003e8 <rcc_enable_gpio+0xbc>)
 80003aa:	6b13      	ldr	r3, [r2, #48]	@ 0x30
 80003ac:	f043 0380 	orr.w	r3, r3, #128	@ 0x80
 80003b0:	e7c3      	b.n	800033a <rcc_enable_gpio+0xe>
 80003b2:	4b15      	ldr	r3, [pc, #84]	@ (8000408 <rcc_enable_gpio+0xdc>)
 80003b4:	4298      	cmp	r0, r3
 80003b6:	d104      	bne.n	80003c2 <rcc_enable_gpio+0x96>
 80003b8:	4a0b      	ldr	r2, [pc, #44]	@ (80003e8 <rcc_enable_gpio+0xbc>)
 80003ba:	6b13      	ldr	r3, [r2, #48]	@ 0x30
 80003bc:	f443 7380 	orr.w	r3, r3, #256	@ 0x100
 80003c0:	e7bb      	b.n	800033a <rcc_enable_gpio+0xe>
 80003c2:	4b12      	ldr	r3, [pc, #72]	@ (800040c <rcc_enable_gpio+0xe0>)
 80003c4:	4298      	cmp	r0, r3
 80003c6:	d104      	bne.n	80003d2 <rcc_enable_gpio+0xa6>
 80003c8:	4a07      	ldr	r2, [pc, #28]	@ (80003e8 <rcc_enable_gpio+0xbc>)
 80003ca:	6b13      	ldr	r3, [r2, #48]	@ 0x30
 80003cc:	f443 7300 	orr.w	r3, r3, #512	@ 0x200
 80003d0:	e7b3      	b.n	800033a <rcc_enable_gpio+0xe>
 80003d2:	4b0f      	ldr	r3, [pc, #60]	@ (8000410 <rcc_enable_gpio+0xe4>)
 80003d4:	4298      	cmp	r0, r3
 80003d6:	d1b3      	bne.n	8000340 <rcc_enable_gpio+0x14>
 80003d8:	4a03      	ldr	r2, [pc, #12]	@ (80003e8 <rcc_enable_gpio+0xbc>)
 80003da:	6b13      	ldr	r3, [r2, #48]	@ 0x30
 80003dc:	f443 6380 	orr.w	r3, r3, #1024	@ 0x400
 80003e0:	e7ab      	b.n	800033a <rcc_enable_gpio+0xe>
 80003e2:	bf00      	nop
 80003e4:	40020000 	.word	0x40020000
 80003e8:	40023800 	.word	0x40023800
 80003ec:	40020400 	.word	0x40020400
 80003f0:	40020800 	.word	0x40020800
 80003f4:	40020c00 	.word	0x40020c00
 80003f8:	40021000 	.word	0x40021000
 80003fc:	40021400 	.word	0x40021400
 8000400:	40021800 	.word	0x40021800
 8000404:	40021c00 	.word	0x40021c00
 8000408:	40022000 	.word	0x40022000
 800040c:	40022400 	.word	0x40022400
 8000410:	40022800 	.word	0x40022800

08000414 <fpu_enable>:
 8000414:	4a05      	ldr	r2, [pc, #20]	@ (800042c <fpu_enable+0x18>)
 8000416:	f8d2 3088 	ldr.w	r3, [r2, #136]	@ 0x88
 800041a:	f443 0370 	orr.w	r3, r3, #15728640	@ 0xf00000
 800041e:	f8c2 3088 	str.w	r3, [r2, #136]	@ 0x88
 8000422:	f3bf 8f4f 	dsb	sy
 8000426:	f3bf 8f6f 	isb	sy
 800042a:	4770      	bx	lr
 800042c:	e000ed00 	.word	0xe000ed00

08000430 <global_init>:
 8000430:	f7ff bff0 	b.w	8000414 <fpu_enable>

08000434 <Reset_Handler>:
 8000434:	480d      	ldr	r0, [pc, #52]	@ (800046c <LoopForever+0x2>)
 8000436:	4685      	mov	sp, r0
 8000438:	f3af 8000 	nop.w
 800043c:	480c      	ldr	r0, [pc, #48]	@ (8000470 <LoopForever+0x6>)
 800043e:	490d      	ldr	r1, [pc, #52]	@ (8000474 <LoopForever+0xa>)
 8000440:	4a0d      	ldr	r2, [pc, #52]	@ (8000478 <LoopForever+0xe>)
 8000442:	2300      	movs	r3, #0
 8000444:	e002      	b.n	800044c <LoopCopyDataInit>

08000446 <CopyDataInit>:
 8000446:	58d4      	ldr	r4, [r2, r3]
 8000448:	50c4      	str	r4, [r0, r3]
 800044a:	3304      	adds	r3, #4

0800044c <LoopCopyDataInit>:
 800044c:	18c4      	adds	r4, r0, r3
 800044e:	428c      	cmp	r4, r1
 8000450:	d3f9      	bcc.n	8000446 <CopyDataInit>
 8000452:	4a0a      	ldr	r2, [pc, #40]	@ (800047c <LoopForever+0x12>)
 8000454:	4c0a      	ldr	r4, [pc, #40]	@ (8000480 <LoopForever+0x16>)
 8000456:	2300      	movs	r3, #0
 8000458:	e001      	b.n	800045e <LoopFillZerobss>

0800045a <FillZerobss>:
 800045a:	6013      	str	r3, [r2, #0]
 800045c:	3204      	adds	r2, #4

0800045e <LoopFillZerobss>:
 800045e:	42a2      	cmp	r2, r4
 8000460:	d3fb      	bcc.n	800045a <FillZerobss>
 8000462:	f000 f811 	bl	8000488 <__libc_init_array>
 8000466:	f7ff ff51 	bl	800030c <main>

0800046a <LoopForever>:
 800046a:	e7fe      	b.n	800046a <LoopForever>
 800046c:	20080000 	.word	0x20080000
 8000470:	20000000 	.word	0x20000000
 8000474:	20000000 	.word	0x20000000
 8000478:	080004f8 	.word	0x080004f8
 800047c:	20000000 	.word	0x20000000
 8000480:	2000001c 	.word	0x2000001c

08000484 <ADC_IRQHandler>:
 8000484:	e7fe      	b.n	8000484 <ADC_IRQHandler>
	...

08000488 <__libc_init_array>:
 8000488:	b570      	push	{r4, r5, r6, lr}
 800048a:	4d0d      	ldr	r5, [pc, #52]	@ (80004c0 <__libc_init_array+0x38>)
 800048c:	4c0d      	ldr	r4, [pc, #52]	@ (80004c4 <__libc_init_array+0x3c>)
 800048e:	1b64      	subs	r4, r4, r5
 8000490:	10a4      	asrs	r4, r4, #2
 8000492:	2600      	movs	r6, #0
 8000494:	42a6      	cmp	r6, r4
 8000496:	d109      	bne.n	80004ac <__libc_init_array+0x24>
 8000498:	4d0b      	ldr	r5, [pc, #44]	@ (80004c8 <__libc_init_array+0x40>)
 800049a:	4c0c      	ldr	r4, [pc, #48]	@ (80004cc <__libc_init_array+0x44>)
 800049c:	f000 f818 	bl	80004d0 <_init>
 80004a0:	1b64      	subs	r4, r4, r5
 80004a2:	10a4      	asrs	r4, r4, #2
 80004a4:	2600      	movs	r6, #0
 80004a6:	42a6      	cmp	r6, r4
 80004a8:	d105      	bne.n	80004b6 <__libc_init_array+0x2e>
 80004aa:	bd70      	pop	{r4, r5, r6, pc}
 80004ac:	f855 3b04 	ldr.w	r3, [r5], #4
 80004b0:	4798      	blx	r3
 80004b2:	3601      	adds	r6, #1
 80004b4:	e7ee      	b.n	8000494 <__libc_init_array+0xc>
 80004b6:	f855 3b04 	ldr.w	r3, [r5], #4
 80004ba:	4798      	blx	r3
 80004bc:	3601      	adds	r6, #1
 80004be:	e7f2      	b.n	80004a6 <__libc_init_array+0x1e>
 80004c0:	080004f0 	.word	0x080004f0
 80004c4:	080004f0 	.word	0x080004f0
 80004c8:	080004f0 	.word	0x080004f0
 80004cc:	080004f4 	.word	0x080004f4

080004d0 <_init>:
 80004d0:	b5f8      	push	{r3, r4, r5, r6, r7, lr}
 80004d2:	bf00      	nop
 80004d4:	bcf8      	pop	{r3, r4, r5, r6, r7}
 80004d6:	bc08      	pop	{r3}
 80004d8:	469e      	mov	lr, r3
 80004da:	4770      	bx	lr

080004dc <_fini>:
 80004dc:	b5f8      	push	{r3, r4, r5, r6, r7, lr}
 80004de:	bf00      	nop
 80004e0:	bcf8      	pop	{r3, r4, r5, r6, r7}
 80004e2:	bc08      	pop	{r3}
 80004e4:	469e      	mov	lr, r3
 80004e6:	4770      	bx	lr
